; Function Attrs: nofree norecurse nosync nounwind memory(none) uwtable
define ptr @wc_ecc_get_name(i32 noundef %curve_id) local_unnamed_addr #0 {
entry:
  br label %for.body.i

for.body.i:                                       ; preds = %for.inc.i, %entry
  %indvars.iv.i = phi i64 [ 0, %entry ], [ %indvars.iv.next.i, %for.inc.i ]
  %arrayidx6.i = phi ptr [ @ecc_sets, %entry ], [ %arrayidx.i, %for.inc.i ]
  %id.i = getelementptr inbounds nuw i8, ptr %arrayidx6.i, i64 4
  %0 = load i32, ptr %id.i, align 4
  %cmp3.i = icmp eq i32 %curve_id, %0
  br i1 %cmp3.i, label %if.end, label %for.inc.i

for.inc.i:                                        ; preds = %for.body.i
  %indvars.iv.next.i = add nuw nsw i64 %indvars.iv.i, 1
  %arrayidx.i = getelementptr inbounds nuw [6 x %struct.ecc_set_type], ptr @ecc_sets, i64 0, i64 %indvars.iv.next.i
  %exitcond.i = icmp eq i64 %indvars.iv.next.i, 5
  br i1 %exitcond.i, label %return, label %for.body.i, !llvm.loop !4

if.end:                                           ; preds = %for.body.i
  %sext = shl i64 %indvars.iv.i, 32
  %idxprom = ashr exact i64 %sext, 32
  %name = getelementptr inbounds [6 x %struct.ecc_set_type], ptr @ecc_sets, i64 0, i64 %idxprom, i32 2
  %1 = load ptr, ptr %name, align 8
  br label %return

return:                                           ; preds = %for.inc.i, %if.end
  %retval.0 = phi ptr [ %1, %if.end ], [ null, %for.inc.i ]
  ret ptr %retval.0
}